target datalayout = "e-m:e-p270:32:32-p271:32:32-p272:64:64-i64:64-i128:128-f80:128-n8:16:32:64-S128"
target triple = "x86_64-pc-linux-gnu"

%struct._zval_struct = type { %union._zend_value, %union.anon, %union.anon.2 }
%union._zend_value = type { i64 }
%union.anon = type { i32 }
%union.anon.2 = type { i32 }
%struct._zend_execute_data = type { ptr, ptr, ptr, ptr, %struct._zval_struct, ptr, ptr, ptr, ptr }

; Function Attrs: nounwind uwtable
define hidden void @zif_gc_enabled(ptr noundef %0, ptr noundef %1) #0 {
  %3 = alloca ptr, align 8
  %4 = alloca ptr, align 8
  store ptr %0, ptr %3, align 8, !tbaa !66
  store ptr %1, ptr %4, align 8, !tbaa !67
  br label %5

5:                                                ; preds = %2
  %6 = load ptr, ptr %3, align 8, !tbaa !66
  %7 = getelementptr inbounds nuw %struct._zend_execute_data, ptr %6, i32 0, i32 4
  %8 = getelementptr inbounds nuw %struct._zval_struct, ptr %7, i32 0, i32 2
  %9 = load i32, ptr %8, align 4, !tbaa !31
  %10 = icmp ne i32 %9, 0
  %11 = xor i1 %10, true
  %12 = xor i1 %11, true
  %13 = zext i1 %12 to i32
  %14 = sext i32 %13 to i64
  %15 = call i64 @llvm.expect.i64(i64 %14, i64 0)
  %16 = icmp ne i64 %15, 0
  br i1 %16, label %17, label %18

17:                                               ; preds = %5
  call void @zend_wrong_parameters_none_error()
  br label %27

18:                                               ; preds = %5
  br label %19

19:                                               ; preds = %18
  br label %20

20:                                               ; preds = %19
  br label %21

21:                                               ; preds = %20
  %22 = call zeroext i1 @gc_enabled()
  %23 = select i1 %22, i32 3, i32 2
  %24 = load ptr, ptr %4, align 8, !tbaa !67
  %25 = getelementptr inbounds nuw %struct._zval_struct, ptr %24, i32 0, i32 1
  store i32 %23, ptr %25, align 8, !tbaa !31
  br label %26

26:                                               ; preds = %21
  br label %27

27:                                               ; preds = %17, %26
  ret void
}